; Function Attrs: mustprogress nofree norecurse nosync nounwind willreturn memory(readwrite, inaccessiblemem: none) uwtable
define hidden void @uv__io_stop(ptr noundef %0, ptr noundef %1, i32 noundef %2) local_unnamed_addr #5 {
  %4 = getelementptr inbounds nuw i8, ptr %1, i64 48
  %5 = load i32, ptr %4, align 8
  %6 = icmp eq i32 %5, -1
  br i1 %6, label %41, label %7

7:                                                ; preds = %3
  %8 = getelementptr inbounds nuw i8, ptr %0, i64 112
  %9 = load i32, ptr %8, align 8
  %.not = icmp ult i32 %5, %9
  br i1 %.not, label %10, label %41

10:                                               ; preds = %7
  %11 = xor i32 %2, -1
  %12 = getelementptr inbounds nuw i8, ptr %1, i64 40
  %13 = load i32, ptr %12, align 8
  %14 = and i32 %13, %11
  store i32 %14, ptr %12, align 8
  %15 = icmp eq i32 %14, 0
  %16 = getelementptr inbounds nuw i8, ptr %1, i64 24
  %17 = load ptr, ptr %16, align 8
  br i1 %15, label %18, label %35

18:                                               ; preds = %10
  %19 = getelementptr inbounds nuw i8, ptr %1, i64 32
  %20 = load ptr, ptr %19, align 8
  store ptr %17, ptr %20, align 8
  %21 = load ptr, ptr %19, align 8
  %22 = getelementptr inbounds nuw i8, ptr %17, i64 8
  store ptr %21, ptr %22, align 8
  store ptr %16, ptr %16, align 8
  store ptr %16, ptr %19, align 8
  %23 = getelementptr inbounds nuw i8, ptr %1, i64 44
  store i32 0, ptr %23, align 4
  %24 = getelementptr inbounds nuw i8, ptr %0, i64 104
  %25 = load ptr, ptr %24, align 8
  %26 = load i32, ptr %4, align 8
  %27 = sext i32 %26 to i64
  %28 = getelementptr inbounds ptr, ptr %25, i64 %27
  %29 = load ptr, ptr %28, align 8
  %30 = icmp eq ptr %1, %29
  br i1 %30, label %31, label %41

31:                                               ; preds = %18
  store ptr null, ptr %28, align 8
  %32 = getelementptr inbounds nuw i8, ptr %0, i64 116
  %33 = load i32, ptr %32, align 4
  %34 = add i32 %33, -1
  store i32 %34, ptr %32, align 4
  br label %41

35:                                               ; preds = %10
  %.not18 = icmp eq ptr %16, %17
  br i1 %.not18, label %36, label %41

36:                                               ; preds = %35
  %37 = getelementptr inbounds nuw i8, ptr %0, i64 88
  store ptr %37, ptr %16, align 8
  %38 = getelementptr inbounds nuw i8, ptr %0, i64 96
  %39 = load ptr, ptr %38, align 8
  %40 = getelementptr inbounds nuw i8, ptr %1, i64 32
  store ptr %39, ptr %40, align 8
  store ptr %16, ptr %39, align 8
  store ptr %16, ptr %38, align 8
  br label %41

41:                                               ; preds = %35, %36, %18, %31, %7, %3
  ret void
}